; Function Attrs: inlinehint mustprogress nounwind uwtable
define internal fastcc void @_ZN5Yosys7hashlib4poolIPN12_GLOBAL__N_113AlumaccWorker10maccnode_tENS0_8hash_opsIS5_EEED2Ev(ptr noundef nonnull readonly align 8 captures(none) dereferenceable(49) %0) unnamed_addr #4 align 2 personality ptr @__gxx_personality_v0 {
  %2 = getelementptr inbounds nuw i8, ptr %0, i64 24
  %.val = load ptr, ptr %2, align 8
  %.not.i.i.i = icmp eq ptr %.val, null
  br i1 %.not.i.i.i, label %_ZNSt6vectorIN5Yosys7hashlib4poolIPN12_GLOBAL__N_113AlumaccWorker10maccnode_tENS1_8hash_opsIS6_EEE7entry_tESaISA_EED2Ev.exit, label %3

3:                                                ; preds = %1
  %4 = getelementptr inbounds nuw i8, ptr %0, i64 40
  %.val1 = load ptr, ptr %4, align 8
  %5 = ptrtoint ptr %.val1 to i64
  %6 = ptrtoint ptr %.val to i64
  %7 = sub i64 %5, %6
  tail call void @_ZdlPvm(ptr noundef nonnull %.val, i64 noundef %7) #25
  br label %_ZNSt6vectorIN5Yosys7hashlib4poolIPN12_GLOBAL__N_113AlumaccWorker10maccnode_tENS1_8hash_opsIS6_EEE7entry_tESaISA_EED2Ev.exit

_ZNSt6vectorIN5Yosys7hashlib4poolIPN12_GLOBAL__N_113AlumaccWorker10maccnode_tENS1_8hash_opsIS6_EEE7entry_tESaISA_EED2Ev.exit: ; preds = %1, %3
  %8 = load ptr, ptr %0, align 8, !tbaa !82
  %.not.i.i.i2 = icmp eq ptr %8, null
  br i1 %.not.i.i.i2, label %_ZNSt6vectorIiSaIiEED2Ev.exit, label %9

9:                                                ; preds = %_ZNSt6vectorIN5Yosys7hashlib4poolIPN12_GLOBAL__N_113AlumaccWorker10maccnode_tENS1_8hash_opsIS6_EEE7entry_tESaISA_EED2Ev.exit
  %10 = getelementptr inbounds nuw i8, ptr %0, i64 16
  %11 = load ptr, ptr %10, align 8, !tbaa !138
  %12 = ptrtoint ptr %11 to i64
  %13 = ptrtoint ptr %8 to i64
  %14 = sub i64 %12, %13
  tail call void @_ZdlPvm(ptr noundef nonnull %8, i64 noundef %14) #25
  br label %_ZNSt6vectorIiSaIiEED2Ev.exit

_ZNSt6vectorIiSaIiEED2Ev.exit:                    ; preds = %_ZNSt6vectorIN5Yosys7hashlib4poolIPN12_GLOBAL__N_113AlumaccWorker10maccnode_tENS1_8hash_opsIS6_EEE7entry_tESaISA_EED2Ev.exit, %9
  ret void
}